; Function Attrs: nounwind uwtable
define internal fastcc range(i32 0, 2) i32 @AllocateDataFormat(ptr nocapture noundef %0) unnamed_addr #0 {
  %2 = getelementptr inbounds i8, ptr %0, i64 4
  %3 = load i32, ptr %2, align 4
  %4 = load i32, ptr %0, align 8
  %.not.i = icmp ult i32 %3, %4
  br i1 %.not.i, label %7, label %5

5:                                                ; preds = %1
  tail call void (ptr, ptr, ...) @SynError(ptr noundef nonnull %0, ptr noundef nonnull @.str.81, i32 noundef %3)
  %6 = getelementptr inbounds i8, ptr %0, i64 16
  br label %GetTable.exit

7:                                                ; preds = %1
  %8 = getelementptr inbounds i8, ptr %0, i64 16
  %9 = zext i32 %3 to i64
  %10 = getelementptr inbounds %struct._Table, ptr %8, i64 %9
  br label %GetTable.exit

GetTable.exit:                                    ; preds = %5, %7
  %.0.i = phi ptr [ %6, %5 ], [ %10, %7 ]
  %11 = getelementptr inbounds i8, ptr %.0.i, i64 1048
  %12 = load ptr, ptr %11, align 8
  %.not = icmp eq ptr %12, null
  br i1 %.not, label %13, label %72

13:                                               ; preds = %GetTable.exit
  %14 = load i32, ptr %2, align 4
  %15 = load i32, ptr %0, align 8
  %.not.i.i = icmp ult i32 %14, %15
  br i1 %.not.i.i, label %18, label %16

16:                                               ; preds = %13
  tail call void (ptr, ptr, ...) @SynError(ptr noundef nonnull %0, ptr noundef nonnull @.str.81, i32 noundef %14)
  %17 = getelementptr inbounds i8, ptr %0, i64 16
  br label %GetTable.exit.i

18:                                               ; preds = %13
  %19 = getelementptr inbounds i8, ptr %0, i64 16
  %20 = zext i32 %14 to i64
  %21 = getelementptr inbounds %struct._Table, ptr %19, i64 %20
  br label %GetTable.exit.i

GetTable.exit.i:                                  ; preds = %18, %16
  %.0.i.i = phi ptr [ %17, %16 ], [ %21, %18 ]
  %22 = getelementptr inbounds i8, ptr %.0.i.i, i64 1040
  %23 = load ptr, ptr %22, align 8
  %cond2941.i.i = icmp eq ptr %23, null
  br i1 %cond2941.i.i, label %satoi.exit.thread, label %.lr.ph.split.i.i

.lr.ph.split.i.i:                                 ; preds = %GetTable.exit.i, %28
  %.02130.i.i = phi ptr [ %29, %28 ], [ %23, %GetTable.exit.i ]
  %24 = getelementptr inbounds i8, ptr %.02130.i.i, i64 8
  %25 = load ptr, ptr %24, align 8
  %26 = tail call i32 @cmsstrcasecmp(ptr noundef nonnull @.str.15, ptr noundef %25) #17
  %27 = icmp eq i32 %26, 0
  br i1 %27, label %cmsIT8GetProperty.exit, label %28

28:                                               ; preds = %.lr.ph.split.i.i
  %29 = load ptr, ptr %.02130.i.i, align 8
  %cond.i.i = icmp eq ptr %29, null
  br i1 %cond.i.i, label %satoi.exit.thread, label %.lr.ph.split.i.i, !llvm.loop !15

cmsIT8GetProperty.exit:                           ; preds = %.lr.ph.split.i.i
  %30 = getelementptr inbounds i8, ptr %.02130.i.i, i64 32
  %31 = load ptr, ptr %30, align 8
  %32 = icmp eq ptr %31, null
  br i1 %32, label %satoi.exit.thread, label %satoi.exit

satoi.exit.thread:                                ; preds = %28, %cmsIT8GetProperty.exit, %GetTable.exit.i
  %33 = getelementptr inbounds i8, ptr %.0.i, i64 1024
  store i32 0, ptr %33, align 8
  br label %37

satoi.exit:                                       ; preds = %cmsIT8GetProperty.exit
  %34 = tail call i32 @atoi(ptr nocapture noundef nonnull readonly %31) #19
  %spec.select.i = tail call i32 @llvm.smax.i32(i32 %34, i32 -2147483646)
  %35 = getelementptr inbounds i8, ptr %.0.i, i64 1024
  store i32 %spec.select.i, ptr %35, align 8
  %36 = icmp slt i32 %34, 1
  br i1 %36, label %37, label %38

37:                                               ; preds = %satoi.exit.thread, %satoi.exit
  tail call void (ptr, ptr, ...) @SynError(ptr noundef nonnull %0, ptr noundef nonnull @.str.149)
  br label %72

38:                                               ; preds = %satoi.exit
  %39 = shl i32 %spec.select.i, 3
  %40 = getelementptr inbounds i8, ptr %0, i64 271344
  %41 = getelementptr inbounds i8, ptr %0, i64 271352
  %42 = load i32, ptr %41, align 8
  %43 = getelementptr inbounds i8, ptr %0, i64 271356
  %44 = load i32, ptr %43, align 4
  %45 = sub i32 %42, %44
  %46 = add i32 %39, 15
  %47 = and i32 %46, -8
  %48 = icmp ugt i32 %47, %45
  br i1 %48, label %49, label %thread-pre-split.i

49:                                               ; preds = %38
  %50 = icmp eq i32 %42, 0
  %51 = shl i32 %42, 1
  %storemerge.i = select i1 %50, i32 20480, i32 %51
  %storemerge25.i = tail call i32 @llvm.umax.i32(i32 %storemerge.i, i32 %47)
  store i32 %storemerge25.i, ptr %41, align 8
  store i32 0, ptr %43, align 4
  %52 = getelementptr inbounds i8, ptr %0, i64 271736
  %53 = load ptr, ptr %52, align 8
  %54 = tail call ptr @_cmsMallocZero(ptr noundef %53, i32 noundef %storemerge25.i) #17
  %.not.i.i15 = icmp eq ptr %54, null
  br i1 %.not.i.i15, label %AllocBigBlock.exit.i, label %55

55:                                               ; preds = %49
  %56 = load ptr, ptr %52, align 8
  %57 = tail call ptr @_cmsMallocZero(ptr noundef %56, i32 noundef 16) #17
  %58 = icmp eq ptr %57, null
  br i1 %58, label %59, label %61

59:                                               ; preds = %55
  %60 = load ptr, ptr %52, align 8
  tail call void @_cmsFree(ptr noundef %60, ptr noundef nonnull %54) #17
  br label %AllocBigBlock.exit.i

61:                                               ; preds = %55
  %62 = getelementptr inbounds i8, ptr %57, i64 8
  store ptr %54, ptr %62, align 8
  %63 = getelementptr inbounds i8, ptr %0, i64 271336
  %64 = load ptr, ptr %63, align 8
  store ptr %64, ptr %57, align 8
  store ptr %57, ptr %63, align 8
  br label %AllocBigBlock.exit.i

AllocBigBlock.exit.i:                             ; preds = %61, %59, %49
  %.0.i.i16 = phi ptr [ null, %59 ], [ %54, %61 ], [ null, %49 ]
  store ptr %.0.i.i16, ptr %40, align 8
  br label %65

thread-pre-split.i:                               ; preds = %38
  %.pr.i = load ptr, ptr %40, align 8
  br label %65

65:                                               ; preds = %thread-pre-split.i, %AllocBigBlock.exit.i
  %66 = phi ptr [ %.pr.i, %thread-pre-split.i ], [ %.0.i.i16, %AllocBigBlock.exit.i ]
  %67 = icmp eq ptr %66, null
  br i1 %67, label %AllocChunk.exit.thread, label %AllocChunk.exit

AllocChunk.exit.thread:                           ; preds = %65
  store ptr null, ptr %11, align 8
  tail call void (ptr, ptr, ...) @SynError(ptr noundef nonnull %0, ptr noundef nonnull @.str.150)
  br label %72

AllocChunk.exit:                                  ; preds = %65
  %68 = load i32, ptr %43, align 4
  %69 = zext i32 %68 to i64
  %70 = getelementptr inbounds i8, ptr %66, i64 %69
  %71 = add i32 %68, %47
  store i32 %71, ptr %43, align 4
  store ptr %70, ptr %11, align 8
  br label %72

72:                                               ; preds = %AllocChunk.exit, %GetTable.exit, %AllocChunk.exit.thread, %37
  %.0 = phi i32 [ 0, %37 ], [ 0, %AllocChunk.exit.thread ], [ 1, %GetTable.exit ], [ 1, %AllocChunk.exit ]
  ret i32 %.0
}